ARM GAS  C:\Users\li\AppData\Local\Temp\cchkWkCc.s 			page 1


   1              		.syntax unified
   2              		.cpu cortex-m3
   3              		.fpu softvfp
   4              		.eabi_attribute 20, 1
   5              		.eabi_attribute 21, 1
   6              		.eabi_attribute 23, 3
   7              		.eabi_attribute 24, 1
   8              		.eabi_attribute 25, 1
   9              		.eabi_attribute 26, 1
  10              		.eabi_attribute 30, 1
  11              		.eabi_attribute 34, 1
  12              		.eabi_attribute 18, 4
  13              		.thumb
  14              		.file	"isr_rx_net.c"
  15              		.text
  16              	.Ltext0:
  17              		.cfi_sections	.debug_frame
  18              		.section	.text.isr_rx_net_Interrupt,"ax",%progbits
  19              		.align	2
  20              		.global	isr_rx_net_Interrupt
  21              		.thumb
  22              		.thumb_func
  23              		.type	isr_rx_net_Interrupt, %function
  24              	isr_rx_net_Interrupt:
  25              	.LFB66:
  26              		.file 1 ".\\Generated_Source\\PSoC5\\isr_rx_net.c"
   1:.\Generated_Source\PSoC5/isr_rx_net.c **** /*******************************************************************************
   2:.\Generated_Source\PSoC5/isr_rx_net.c **** * File Name: isr_rx_net.c  
   3:.\Generated_Source\PSoC5/isr_rx_net.c **** * Version 1.70
   4:.\Generated_Source\PSoC5/isr_rx_net.c **** *
   5:.\Generated_Source\PSoC5/isr_rx_net.c **** *  Description:
   6:.\Generated_Source\PSoC5/isr_rx_net.c **** *   API for controlling the state of an interrupt.
   7:.\Generated_Source\PSoC5/isr_rx_net.c **** *
   8:.\Generated_Source\PSoC5/isr_rx_net.c **** *
   9:.\Generated_Source\PSoC5/isr_rx_net.c **** *  Note:
  10:.\Generated_Source\PSoC5/isr_rx_net.c **** *
  11:.\Generated_Source\PSoC5/isr_rx_net.c **** ********************************************************************************
  12:.\Generated_Source\PSoC5/isr_rx_net.c **** * Copyright 2008-2015, Cypress Semiconductor Corporation.  All rights reserved.
  13:.\Generated_Source\PSoC5/isr_rx_net.c **** * You may use this file only in accordance with the license, terms, conditions, 
  14:.\Generated_Source\PSoC5/isr_rx_net.c **** * disclaimers, and limitations in the end user license agreement accompanying 
  15:.\Generated_Source\PSoC5/isr_rx_net.c **** * the software package with which this file was provided.
  16:.\Generated_Source\PSoC5/isr_rx_net.c **** *******************************************************************************/
  17:.\Generated_Source\PSoC5/isr_rx_net.c **** 
  18:.\Generated_Source\PSoC5/isr_rx_net.c **** 
  19:.\Generated_Source\PSoC5/isr_rx_net.c **** #include <cydevice_trm.h>
  20:.\Generated_Source\PSoC5/isr_rx_net.c **** #include <CyLib.h>
  21:.\Generated_Source\PSoC5/isr_rx_net.c **** #include <isr_rx_net.h>
  22:.\Generated_Source\PSoC5/isr_rx_net.c **** #include "cyapicallbacks.h"
  23:.\Generated_Source\PSoC5/isr_rx_net.c **** 
  24:.\Generated_Source\PSoC5/isr_rx_net.c **** #if !defined(isr_rx_net__REMOVED) /* Check for removal by optimization */
  25:.\Generated_Source\PSoC5/isr_rx_net.c **** 
  26:.\Generated_Source\PSoC5/isr_rx_net.c **** /*******************************************************************************
  27:.\Generated_Source\PSoC5/isr_rx_net.c **** *  Place your includes, defines and code here 
  28:.\Generated_Source\PSoC5/isr_rx_net.c **** ********************************************************************************/
  29:.\Generated_Source\PSoC5/isr_rx_net.c **** /* `#START isr_rx_net_intc` */
  30:.\Generated_Source\PSoC5/isr_rx_net.c ****     #include "UART_net.h"
  31:.\Generated_Source\PSoC5/isr_rx_net.c ****     #include "Transfer.h"
ARM GAS  C:\Users\li\AppData\Local\Temp\cchkWkCc.s 			page 2


  32:.\Generated_Source\PSoC5/isr_rx_net.c ****    uint8 data;
  33:.\Generated_Source\PSoC5/isr_rx_net.c ****     uint8 data1;
  34:.\Generated_Source\PSoC5/isr_rx_net.c **** /* `#END` */
  35:.\Generated_Source\PSoC5/isr_rx_net.c **** 
  36:.\Generated_Source\PSoC5/isr_rx_net.c **** #ifndef CYINT_IRQ_BASE
  37:.\Generated_Source\PSoC5/isr_rx_net.c **** #define CYINT_IRQ_BASE      16
  38:.\Generated_Source\PSoC5/isr_rx_net.c **** #endif /* CYINT_IRQ_BASE */
  39:.\Generated_Source\PSoC5/isr_rx_net.c **** #ifndef CYINT_VECT_TABLE
  40:.\Generated_Source\PSoC5/isr_rx_net.c **** #define CYINT_VECT_TABLE    ((cyisraddress **) CYREG_NVIC_VECT_OFFSET)
  41:.\Generated_Source\PSoC5/isr_rx_net.c **** #endif /* CYINT_VECT_TABLE */
  42:.\Generated_Source\PSoC5/isr_rx_net.c **** 
  43:.\Generated_Source\PSoC5/isr_rx_net.c **** /* Declared in startup, used to set unused interrupts to. */
  44:.\Generated_Source\PSoC5/isr_rx_net.c **** CY_ISR_PROTO(IntDefaultHandler);
  45:.\Generated_Source\PSoC5/isr_rx_net.c **** 
  46:.\Generated_Source\PSoC5/isr_rx_net.c **** 
  47:.\Generated_Source\PSoC5/isr_rx_net.c **** /*******************************************************************************
  48:.\Generated_Source\PSoC5/isr_rx_net.c **** * Function Name: isr_rx_net_Start
  49:.\Generated_Source\PSoC5/isr_rx_net.c **** ********************************************************************************
  50:.\Generated_Source\PSoC5/isr_rx_net.c **** *
  51:.\Generated_Source\PSoC5/isr_rx_net.c **** * Summary:
  52:.\Generated_Source\PSoC5/isr_rx_net.c **** *  Set up the interrupt and enable it. This function disables the interrupt, 
  53:.\Generated_Source\PSoC5/isr_rx_net.c **** *  sets the default interrupt vector, sets the priority from the value in the
  54:.\Generated_Source\PSoC5/isr_rx_net.c **** *  Design Wide Resources Interrupt Editor, then enables the interrupt to the 
  55:.\Generated_Source\PSoC5/isr_rx_net.c **** *  interrupt controller.
  56:.\Generated_Source\PSoC5/isr_rx_net.c **** *
  57:.\Generated_Source\PSoC5/isr_rx_net.c **** * Parameters:  
  58:.\Generated_Source\PSoC5/isr_rx_net.c **** *   None
  59:.\Generated_Source\PSoC5/isr_rx_net.c **** *
  60:.\Generated_Source\PSoC5/isr_rx_net.c **** * Return:
  61:.\Generated_Source\PSoC5/isr_rx_net.c **** *   None
  62:.\Generated_Source\PSoC5/isr_rx_net.c **** *
  63:.\Generated_Source\PSoC5/isr_rx_net.c **** *******************************************************************************/
  64:.\Generated_Source\PSoC5/isr_rx_net.c **** void isr_rx_net_Start(void)
  65:.\Generated_Source\PSoC5/isr_rx_net.c **** {
  66:.\Generated_Source\PSoC5/isr_rx_net.c ****     /* For all we know the interrupt is active. */
  67:.\Generated_Source\PSoC5/isr_rx_net.c ****     isr_rx_net_Disable();
  68:.\Generated_Source\PSoC5/isr_rx_net.c **** 
  69:.\Generated_Source\PSoC5/isr_rx_net.c ****     /* Set the ISR to point to the isr_rx_net Interrupt. */
  70:.\Generated_Source\PSoC5/isr_rx_net.c ****     isr_rx_net_SetVector(&isr_rx_net_Interrupt);
  71:.\Generated_Source\PSoC5/isr_rx_net.c **** 
  72:.\Generated_Source\PSoC5/isr_rx_net.c ****     /* Set the priority. */
  73:.\Generated_Source\PSoC5/isr_rx_net.c ****     isr_rx_net_SetPriority((uint8)isr_rx_net_INTC_PRIOR_NUMBER);
  74:.\Generated_Source\PSoC5/isr_rx_net.c **** 
  75:.\Generated_Source\PSoC5/isr_rx_net.c ****     /* Enable it. */
  76:.\Generated_Source\PSoC5/isr_rx_net.c ****     isr_rx_net_Enable();
  77:.\Generated_Source\PSoC5/isr_rx_net.c **** }
  78:.\Generated_Source\PSoC5/isr_rx_net.c **** 
  79:.\Generated_Source\PSoC5/isr_rx_net.c **** 
  80:.\Generated_Source\PSoC5/isr_rx_net.c **** /*******************************************************************************
  81:.\Generated_Source\PSoC5/isr_rx_net.c **** * Function Name: isr_rx_net_StartEx
  82:.\Generated_Source\PSoC5/isr_rx_net.c **** ********************************************************************************
  83:.\Generated_Source\PSoC5/isr_rx_net.c **** *
  84:.\Generated_Source\PSoC5/isr_rx_net.c **** * Summary:
  85:.\Generated_Source\PSoC5/isr_rx_net.c **** *  Sets up the interrupt and enables it. This function disables the interrupt,
  86:.\Generated_Source\PSoC5/isr_rx_net.c **** *  sets the interrupt vector based on the address passed in, sets the priority 
  87:.\Generated_Source\PSoC5/isr_rx_net.c **** *  from the value in the Design Wide Resources Interrupt Editor, then enables 
  88:.\Generated_Source\PSoC5/isr_rx_net.c **** *  the interrupt to the interrupt controller.
ARM GAS  C:\Users\li\AppData\Local\Temp\cchkWkCc.s 			page 3


  89:.\Generated_Source\PSoC5/isr_rx_net.c **** *  
  90:.\Generated_Source\PSoC5/isr_rx_net.c **** *  When defining ISR functions, the CY_ISR and CY_ISR_PROTO macros should be 
  91:.\Generated_Source\PSoC5/isr_rx_net.c **** *  used to provide consistent definition across compilers:
  92:.\Generated_Source\PSoC5/isr_rx_net.c **** *  
  93:.\Generated_Source\PSoC5/isr_rx_net.c **** *  Function definition example:
  94:.\Generated_Source\PSoC5/isr_rx_net.c **** *   CY_ISR(MyISR)
  95:.\Generated_Source\PSoC5/isr_rx_net.c **** *   {
  96:.\Generated_Source\PSoC5/isr_rx_net.c **** *   }
  97:.\Generated_Source\PSoC5/isr_rx_net.c **** *   Function prototype example:
  98:.\Generated_Source\PSoC5/isr_rx_net.c **** *   CY_ISR_PROTO(MyISR);
  99:.\Generated_Source\PSoC5/isr_rx_net.c **** *
 100:.\Generated_Source\PSoC5/isr_rx_net.c **** * Parameters:  
 101:.\Generated_Source\PSoC5/isr_rx_net.c **** *   address: Address of the ISR to set in the interrupt vector table.
 102:.\Generated_Source\PSoC5/isr_rx_net.c **** *
 103:.\Generated_Source\PSoC5/isr_rx_net.c **** * Return:
 104:.\Generated_Source\PSoC5/isr_rx_net.c **** *   None
 105:.\Generated_Source\PSoC5/isr_rx_net.c **** *
 106:.\Generated_Source\PSoC5/isr_rx_net.c **** *******************************************************************************/
 107:.\Generated_Source\PSoC5/isr_rx_net.c **** void isr_rx_net_StartEx(cyisraddress address)
 108:.\Generated_Source\PSoC5/isr_rx_net.c **** {
 109:.\Generated_Source\PSoC5/isr_rx_net.c ****     /* For all we know the interrupt is active. */
 110:.\Generated_Source\PSoC5/isr_rx_net.c ****     isr_rx_net_Disable();
 111:.\Generated_Source\PSoC5/isr_rx_net.c **** 
 112:.\Generated_Source\PSoC5/isr_rx_net.c ****     /* Set the ISR to point to the isr_rx_net Interrupt. */
 113:.\Generated_Source\PSoC5/isr_rx_net.c ****     isr_rx_net_SetVector(address);
 114:.\Generated_Source\PSoC5/isr_rx_net.c **** 
 115:.\Generated_Source\PSoC5/isr_rx_net.c ****     /* Set the priority. */
 116:.\Generated_Source\PSoC5/isr_rx_net.c ****     isr_rx_net_SetPriority((uint8)isr_rx_net_INTC_PRIOR_NUMBER);
 117:.\Generated_Source\PSoC5/isr_rx_net.c **** 
 118:.\Generated_Source\PSoC5/isr_rx_net.c ****     /* Enable it. */
 119:.\Generated_Source\PSoC5/isr_rx_net.c ****     isr_rx_net_Enable();
 120:.\Generated_Source\PSoC5/isr_rx_net.c **** }
 121:.\Generated_Source\PSoC5/isr_rx_net.c **** 
 122:.\Generated_Source\PSoC5/isr_rx_net.c **** 
 123:.\Generated_Source\PSoC5/isr_rx_net.c **** /*******************************************************************************
 124:.\Generated_Source\PSoC5/isr_rx_net.c **** * Function Name: isr_rx_net_Stop
 125:.\Generated_Source\PSoC5/isr_rx_net.c **** ********************************************************************************
 126:.\Generated_Source\PSoC5/isr_rx_net.c **** *
 127:.\Generated_Source\PSoC5/isr_rx_net.c **** * Summary:
 128:.\Generated_Source\PSoC5/isr_rx_net.c **** *   Disables and removes the interrupt.
 129:.\Generated_Source\PSoC5/isr_rx_net.c **** *
 130:.\Generated_Source\PSoC5/isr_rx_net.c **** * Parameters:  
 131:.\Generated_Source\PSoC5/isr_rx_net.c **** *   None
 132:.\Generated_Source\PSoC5/isr_rx_net.c **** *
 133:.\Generated_Source\PSoC5/isr_rx_net.c **** * Return:
 134:.\Generated_Source\PSoC5/isr_rx_net.c **** *   None
 135:.\Generated_Source\PSoC5/isr_rx_net.c **** *
 136:.\Generated_Source\PSoC5/isr_rx_net.c **** *******************************************************************************/
 137:.\Generated_Source\PSoC5/isr_rx_net.c **** void isr_rx_net_Stop(void)
 138:.\Generated_Source\PSoC5/isr_rx_net.c **** {
 139:.\Generated_Source\PSoC5/isr_rx_net.c ****     /* Disable this interrupt. */
 140:.\Generated_Source\PSoC5/isr_rx_net.c ****     isr_rx_net_Disable();
 141:.\Generated_Source\PSoC5/isr_rx_net.c **** 
 142:.\Generated_Source\PSoC5/isr_rx_net.c ****     /* Set the ISR to point to the passive one. */
 143:.\Generated_Source\PSoC5/isr_rx_net.c ****     isr_rx_net_SetVector(&IntDefaultHandler);
 144:.\Generated_Source\PSoC5/isr_rx_net.c **** }
 145:.\Generated_Source\PSoC5/isr_rx_net.c **** 
ARM GAS  C:\Users\li\AppData\Local\Temp\cchkWkCc.s 			page 4


 146:.\Generated_Source\PSoC5/isr_rx_net.c **** 
 147:.\Generated_Source\PSoC5/isr_rx_net.c **** /*******************************************************************************
 148:.\Generated_Source\PSoC5/isr_rx_net.c **** * Function Name: isr_rx_net_Interrupt
 149:.\Generated_Source\PSoC5/isr_rx_net.c **** ********************************************************************************
 150:.\Generated_Source\PSoC5/isr_rx_net.c **** *
 151:.\Generated_Source\PSoC5/isr_rx_net.c **** * Summary:
 152:.\Generated_Source\PSoC5/isr_rx_net.c **** *   The default Interrupt Service Routine for isr_rx_net.
 153:.\Generated_Source\PSoC5/isr_rx_net.c **** *
 154:.\Generated_Source\PSoC5/isr_rx_net.c **** *   Add custom code between the coments to keep the next version of this file
 155:.\Generated_Source\PSoC5/isr_rx_net.c **** *   from over writting your code.
 156:.\Generated_Source\PSoC5/isr_rx_net.c **** *
 157:.\Generated_Source\PSoC5/isr_rx_net.c **** * Parameters:  
 158:.\Generated_Source\PSoC5/isr_rx_net.c **** *
 159:.\Generated_Source\PSoC5/isr_rx_net.c **** * Return:
 160:.\Generated_Source\PSoC5/isr_rx_net.c **** *   None
 161:.\Generated_Source\PSoC5/isr_rx_net.c **** *
 162:.\Generated_Source\PSoC5/isr_rx_net.c **** *******************************************************************************/
 163:.\Generated_Source\PSoC5/isr_rx_net.c **** CY_ISR(isr_rx_net_Interrupt)
 164:.\Generated_Source\PSoC5/isr_rx_net.c **** {
  27              		.loc 1 164 0
  28              		.cfi_startproc
  29              		@ args = 0, pretend = 0, frame = 0
  30              		@ frame_needed = 0, uses_anonymous_args = 0
  31 0000 08B5     		push	{r3, lr}
  32              		.cfi_def_cfa_offset 8
  33              		.cfi_offset 3, -8
  34              		.cfi_offset 14, -4
 165:.\Generated_Source\PSoC5/isr_rx_net.c ****     #ifdef isr_rx_net_INTERRUPT_INTERRUPT_CALLBACK
 166:.\Generated_Source\PSoC5/isr_rx_net.c ****         isr_rx_net_Interrupt_InterruptCallback();
 167:.\Generated_Source\PSoC5/isr_rx_net.c ****     #endif /* isr_rx_net_INTERRUPT_INTERRUPT_CALLBACK */ 
 168:.\Generated_Source\PSoC5/isr_rx_net.c **** 
 169:.\Generated_Source\PSoC5/isr_rx_net.c ****     /*  Place your Interrupt code here. */
 170:.\Generated_Source\PSoC5/isr_rx_net.c ****     /* `#START isr_rx_net_Interrupt` */
 171:.\Generated_Source\PSoC5/isr_rx_net.c ****     uint8 data; 
 172:.\Generated_Source\PSoC5/isr_rx_net.c ****     data = UART_net_GetChar();
  35              		.loc 1 172 0
  36 0002 FFF7FEFF 		bl	UART_net_GetChar
  37              	.LVL0:
 173:.\Generated_Source\PSoC5/isr_rx_net.c ****     DT_Data_Receive_Prepare(data);
  38              		.loc 1 173 0
  39 0006 FFF7FEFF 		bl	DT_Data_Receive_Prepare
  40              	.LVL1:
  41 000a 08BD     		pop	{r3, pc}
  42              		.cfi_endproc
  43              	.LFE66:
  44              		.size	isr_rx_net_Interrupt, .-isr_rx_net_Interrupt
  45              		.section	.text.isr_rx_net_SetVector,"ax",%progbits
  46              		.align	2
  47              		.global	isr_rx_net_SetVector
  48              		.thumb
  49              		.thumb_func
  50              		.type	isr_rx_net_SetVector, %function
  51              	isr_rx_net_SetVector:
  52              	.LFB67:
 174:.\Generated_Source\PSoC5/isr_rx_net.c ****     /* `#END` */
 175:.\Generated_Source\PSoC5/isr_rx_net.c **** }
 176:.\Generated_Source\PSoC5/isr_rx_net.c **** 
ARM GAS  C:\Users\li\AppData\Local\Temp\cchkWkCc.s 			page 5


 177:.\Generated_Source\PSoC5/isr_rx_net.c **** 
 178:.\Generated_Source\PSoC5/isr_rx_net.c **** /*******************************************************************************
 179:.\Generated_Source\PSoC5/isr_rx_net.c **** * Function Name: isr_rx_net_SetVector
 180:.\Generated_Source\PSoC5/isr_rx_net.c **** ********************************************************************************
 181:.\Generated_Source\PSoC5/isr_rx_net.c **** *
 182:.\Generated_Source\PSoC5/isr_rx_net.c **** * Summary:
 183:.\Generated_Source\PSoC5/isr_rx_net.c **** *   Change the ISR vector for the Interrupt. Note calling isr_rx_net_Start
 184:.\Generated_Source\PSoC5/isr_rx_net.c **** *   will override any effect this method would have had. To set the vector 
 185:.\Generated_Source\PSoC5/isr_rx_net.c **** *   before the component has been started use isr_rx_net_StartEx instead.
 186:.\Generated_Source\PSoC5/isr_rx_net.c **** * 
 187:.\Generated_Source\PSoC5/isr_rx_net.c **** *   When defining ISR functions, the CY_ISR and CY_ISR_PROTO macros should be 
 188:.\Generated_Source\PSoC5/isr_rx_net.c **** *   used to provide consistent definition across compilers:
 189:.\Generated_Source\PSoC5/isr_rx_net.c **** *
 190:.\Generated_Source\PSoC5/isr_rx_net.c **** *   Function definition example:
 191:.\Generated_Source\PSoC5/isr_rx_net.c **** *   CY_ISR(MyISR)
 192:.\Generated_Source\PSoC5/isr_rx_net.c **** *   {
 193:.\Generated_Source\PSoC5/isr_rx_net.c **** *   }
 194:.\Generated_Source\PSoC5/isr_rx_net.c **** *
 195:.\Generated_Source\PSoC5/isr_rx_net.c **** *   Function prototype example:
 196:.\Generated_Source\PSoC5/isr_rx_net.c **** *     CY_ISR_PROTO(MyISR);
 197:.\Generated_Source\PSoC5/isr_rx_net.c **** *
 198:.\Generated_Source\PSoC5/isr_rx_net.c **** * Parameters:
 199:.\Generated_Source\PSoC5/isr_rx_net.c **** *   address: Address of the ISR to set in the interrupt vector table.
 200:.\Generated_Source\PSoC5/isr_rx_net.c **** *
 201:.\Generated_Source\PSoC5/isr_rx_net.c **** * Return:
 202:.\Generated_Source\PSoC5/isr_rx_net.c **** *   None
 203:.\Generated_Source\PSoC5/isr_rx_net.c **** *
 204:.\Generated_Source\PSoC5/isr_rx_net.c **** *******************************************************************************/
 205:.\Generated_Source\PSoC5/isr_rx_net.c **** void isr_rx_net_SetVector(cyisraddress address)
 206:.\Generated_Source\PSoC5/isr_rx_net.c **** {
  53              		.loc 1 206 0
  54              		.cfi_startproc
  55              		@ args = 0, pretend = 0, frame = 0
  56              		@ frame_needed = 0, uses_anonymous_args = 0
  57              		@ link register save eliminated.
  58              	.LVL2:
 207:.\Generated_Source\PSoC5/isr_rx_net.c ****     cyisraddress * ramVectorTable;
 208:.\Generated_Source\PSoC5/isr_rx_net.c **** 
 209:.\Generated_Source\PSoC5/isr_rx_net.c ****     ramVectorTable = (cyisraddress *) *CYINT_VECT_TABLE;
  59              		.loc 1 209 0
  60 0000 014B     		ldr	r3, .L4
  61 0002 1B68     		ldr	r3, [r3]
  62              	.LVL3:
 210:.\Generated_Source\PSoC5/isr_rx_net.c **** 
 211:.\Generated_Source\PSoC5/isr_rx_net.c ****     ramVectorTable[CYINT_IRQ_BASE + (uint32)isr_rx_net__INTC_NUMBER] = address;
  63              		.loc 1 211 0
  64 0004 5864     		str	r0, [r3, #68]
  65 0006 7047     		bx	lr
  66              	.L5:
  67              		.align	2
  68              	.L4:
  69 0008 08ED00E0 		.word	-536810232
  70              		.cfi_endproc
  71              	.LFE67:
  72              		.size	isr_rx_net_SetVector, .-isr_rx_net_SetVector
  73              		.section	.text.isr_rx_net_GetVector,"ax",%progbits
  74              		.align	2
ARM GAS  C:\Users\li\AppData\Local\Temp\cchkWkCc.s 			page 6


  75              		.global	isr_rx_net_GetVector
  76              		.thumb
  77              		.thumb_func
  78              		.type	isr_rx_net_GetVector, %function
  79              	isr_rx_net_GetVector:
  80              	.LFB68:
 212:.\Generated_Source\PSoC5/isr_rx_net.c **** }
 213:.\Generated_Source\PSoC5/isr_rx_net.c **** 
 214:.\Generated_Source\PSoC5/isr_rx_net.c **** 
 215:.\Generated_Source\PSoC5/isr_rx_net.c **** /*******************************************************************************
 216:.\Generated_Source\PSoC5/isr_rx_net.c **** * Function Name: isr_rx_net_GetVector
 217:.\Generated_Source\PSoC5/isr_rx_net.c **** ********************************************************************************
 218:.\Generated_Source\PSoC5/isr_rx_net.c **** *
 219:.\Generated_Source\PSoC5/isr_rx_net.c **** * Summary:
 220:.\Generated_Source\PSoC5/isr_rx_net.c **** *   Gets the "address" of the current ISR vector for the Interrupt.
 221:.\Generated_Source\PSoC5/isr_rx_net.c **** *
 222:.\Generated_Source\PSoC5/isr_rx_net.c **** * Parameters:
 223:.\Generated_Source\PSoC5/isr_rx_net.c **** *   None
 224:.\Generated_Source\PSoC5/isr_rx_net.c **** *
 225:.\Generated_Source\PSoC5/isr_rx_net.c **** * Return:
 226:.\Generated_Source\PSoC5/isr_rx_net.c **** *   Address of the ISR in the interrupt vector table.
 227:.\Generated_Source\PSoC5/isr_rx_net.c **** *
 228:.\Generated_Source\PSoC5/isr_rx_net.c **** *******************************************************************************/
 229:.\Generated_Source\PSoC5/isr_rx_net.c **** cyisraddress isr_rx_net_GetVector(void)
 230:.\Generated_Source\PSoC5/isr_rx_net.c **** {
  81              		.loc 1 230 0
  82              		.cfi_startproc
  83              		@ args = 0, pretend = 0, frame = 0
  84              		@ frame_needed = 0, uses_anonymous_args = 0
  85              		@ link register save eliminated.
 231:.\Generated_Source\PSoC5/isr_rx_net.c ****     cyisraddress * ramVectorTable;
 232:.\Generated_Source\PSoC5/isr_rx_net.c **** 
 233:.\Generated_Source\PSoC5/isr_rx_net.c ****     ramVectorTable = (cyisraddress *) *CYINT_VECT_TABLE;
  86              		.loc 1 233 0
  87 0000 014B     		ldr	r3, .L7
  88 0002 1B68     		ldr	r3, [r3]
  89              	.LVL4:
 234:.\Generated_Source\PSoC5/isr_rx_net.c **** 
 235:.\Generated_Source\PSoC5/isr_rx_net.c ****     return ramVectorTable[CYINT_IRQ_BASE + (uint32)isr_rx_net__INTC_NUMBER];
 236:.\Generated_Source\PSoC5/isr_rx_net.c **** }
  90              		.loc 1 236 0
  91 0004 586C     		ldr	r0, [r3, #68]
  92 0006 7047     		bx	lr
  93              	.L8:
  94              		.align	2
  95              	.L7:
  96 0008 08ED00E0 		.word	-536810232
  97              		.cfi_endproc
  98              	.LFE68:
  99              		.size	isr_rx_net_GetVector, .-isr_rx_net_GetVector
 100              		.section	.text.isr_rx_net_SetPriority,"ax",%progbits
 101              		.align	2
 102              		.global	isr_rx_net_SetPriority
 103              		.thumb
 104              		.thumb_func
 105              		.type	isr_rx_net_SetPriority, %function
 106              	isr_rx_net_SetPriority:
ARM GAS  C:\Users\li\AppData\Local\Temp\cchkWkCc.s 			page 7


 107              	.LFB69:
 237:.\Generated_Source\PSoC5/isr_rx_net.c **** 
 238:.\Generated_Source\PSoC5/isr_rx_net.c **** 
 239:.\Generated_Source\PSoC5/isr_rx_net.c **** /*******************************************************************************
 240:.\Generated_Source\PSoC5/isr_rx_net.c **** * Function Name: isr_rx_net_SetPriority
 241:.\Generated_Source\PSoC5/isr_rx_net.c **** ********************************************************************************
 242:.\Generated_Source\PSoC5/isr_rx_net.c **** *
 243:.\Generated_Source\PSoC5/isr_rx_net.c **** * Summary:
 244:.\Generated_Source\PSoC5/isr_rx_net.c **** *   Sets the Priority of the Interrupt. 
 245:.\Generated_Source\PSoC5/isr_rx_net.c **** *
 246:.\Generated_Source\PSoC5/isr_rx_net.c **** *   Note calling isr_rx_net_Start or isr_rx_net_StartEx will 
 247:.\Generated_Source\PSoC5/isr_rx_net.c **** *   override any effect this API would have had. This API should only be called
 248:.\Generated_Source\PSoC5/isr_rx_net.c **** *   after isr_rx_net_Start or isr_rx_net_StartEx has been called. 
 249:.\Generated_Source\PSoC5/isr_rx_net.c **** *   To set the initial priority for the component, use the Design-Wide Resources
 250:.\Generated_Source\PSoC5/isr_rx_net.c **** *   Interrupt Editor.
 251:.\Generated_Source\PSoC5/isr_rx_net.c **** *
 252:.\Generated_Source\PSoC5/isr_rx_net.c **** *   Note This API has no effect on Non-maskable interrupt NMI).
 253:.\Generated_Source\PSoC5/isr_rx_net.c **** *
 254:.\Generated_Source\PSoC5/isr_rx_net.c **** * Parameters:
 255:.\Generated_Source\PSoC5/isr_rx_net.c **** *   priority: Priority of the interrupt, 0 being the highest priority
 256:.\Generated_Source\PSoC5/isr_rx_net.c **** *             PSoC 3 and PSoC 5LP: Priority is from 0 to 7.
 257:.\Generated_Source\PSoC5/isr_rx_net.c **** *             PSoC 4: Priority is from 0 to 3.
 258:.\Generated_Source\PSoC5/isr_rx_net.c **** *
 259:.\Generated_Source\PSoC5/isr_rx_net.c **** * Return:
 260:.\Generated_Source\PSoC5/isr_rx_net.c **** *   None
 261:.\Generated_Source\PSoC5/isr_rx_net.c **** *
 262:.\Generated_Source\PSoC5/isr_rx_net.c **** *******************************************************************************/
 263:.\Generated_Source\PSoC5/isr_rx_net.c **** void isr_rx_net_SetPriority(uint8 priority)
 264:.\Generated_Source\PSoC5/isr_rx_net.c **** {
 108              		.loc 1 264 0
 109              		.cfi_startproc
 110              		@ args = 0, pretend = 0, frame = 0
 111              		@ frame_needed = 0, uses_anonymous_args = 0
 112              		@ link register save eliminated.
 113              	.LVL5:
 265:.\Generated_Source\PSoC5/isr_rx_net.c ****     *isr_rx_net_INTC_PRIOR = priority << 5;
 114              		.loc 1 265 0
 115 0000 4001     		lsls	r0, r0, #5
 116              	.LVL6:
 117 0002 C0B2     		uxtb	r0, r0
 118 0004 014B     		ldr	r3, .L10
 119 0006 1870     		strb	r0, [r3]
 120 0008 7047     		bx	lr
 121              	.L11:
 122 000a 00BF     		.align	2
 123              	.L10:
 124 000c 01E400E0 		.word	-536812543
 125              		.cfi_endproc
 126              	.LFE69:
 127              		.size	isr_rx_net_SetPriority, .-isr_rx_net_SetPriority
 128              		.section	.text.isr_rx_net_GetPriority,"ax",%progbits
 129              		.align	2
 130              		.global	isr_rx_net_GetPriority
 131              		.thumb
 132              		.thumb_func
 133              		.type	isr_rx_net_GetPriority, %function
 134              	isr_rx_net_GetPriority:
ARM GAS  C:\Users\li\AppData\Local\Temp\cchkWkCc.s 			page 8


 135              	.LFB70:
 266:.\Generated_Source\PSoC5/isr_rx_net.c **** }
 267:.\Generated_Source\PSoC5/isr_rx_net.c **** 
 268:.\Generated_Source\PSoC5/isr_rx_net.c **** 
 269:.\Generated_Source\PSoC5/isr_rx_net.c **** /*******************************************************************************
 270:.\Generated_Source\PSoC5/isr_rx_net.c **** * Function Name: isr_rx_net_GetPriority
 271:.\Generated_Source\PSoC5/isr_rx_net.c **** ********************************************************************************
 272:.\Generated_Source\PSoC5/isr_rx_net.c **** *
 273:.\Generated_Source\PSoC5/isr_rx_net.c **** * Summary:
 274:.\Generated_Source\PSoC5/isr_rx_net.c **** *   Gets the Priority of the Interrupt.
 275:.\Generated_Source\PSoC5/isr_rx_net.c **** *
 276:.\Generated_Source\PSoC5/isr_rx_net.c **** * Parameters:
 277:.\Generated_Source\PSoC5/isr_rx_net.c **** *   None
 278:.\Generated_Source\PSoC5/isr_rx_net.c **** *
 279:.\Generated_Source\PSoC5/isr_rx_net.c **** * Return:
 280:.\Generated_Source\PSoC5/isr_rx_net.c **** *   Priority of the interrupt, 0 being the highest priority
 281:.\Generated_Source\PSoC5/isr_rx_net.c **** *    PSoC 3 and PSoC 5LP: Priority is from 0 to 7.
 282:.\Generated_Source\PSoC5/isr_rx_net.c **** *    PSoC 4: Priority is from 0 to 3.
 283:.\Generated_Source\PSoC5/isr_rx_net.c **** *
 284:.\Generated_Source\PSoC5/isr_rx_net.c **** *******************************************************************************/
 285:.\Generated_Source\PSoC5/isr_rx_net.c **** uint8 isr_rx_net_GetPriority(void)
 286:.\Generated_Source\PSoC5/isr_rx_net.c **** {
 136              		.loc 1 286 0
 137              		.cfi_startproc
 138              		@ args = 0, pretend = 0, frame = 0
 139              		@ frame_needed = 0, uses_anonymous_args = 0
 140              		@ link register save eliminated.
 287:.\Generated_Source\PSoC5/isr_rx_net.c ****     uint8 priority;
 288:.\Generated_Source\PSoC5/isr_rx_net.c **** 
 289:.\Generated_Source\PSoC5/isr_rx_net.c **** 
 290:.\Generated_Source\PSoC5/isr_rx_net.c ****     priority = *isr_rx_net_INTC_PRIOR >> 5;
 141              		.loc 1 290 0
 142 0000 014B     		ldr	r3, .L13
 143 0002 1878     		ldrb	r0, [r3]	@ zero_extendqisi2
 144              	.LVL7:
 291:.\Generated_Source\PSoC5/isr_rx_net.c **** 
 292:.\Generated_Source\PSoC5/isr_rx_net.c ****     return priority;
 293:.\Generated_Source\PSoC5/isr_rx_net.c **** }
 145              		.loc 1 293 0
 146 0004 4009     		lsrs	r0, r0, #5
 147              	.LVL8:
 148 0006 7047     		bx	lr
 149              	.L14:
 150              		.align	2
 151              	.L13:
 152 0008 01E400E0 		.word	-536812543
 153              		.cfi_endproc
 154              	.LFE70:
 155              		.size	isr_rx_net_GetPriority, .-isr_rx_net_GetPriority
 156              		.section	.text.isr_rx_net_Enable,"ax",%progbits
 157              		.align	2
 158              		.global	isr_rx_net_Enable
 159              		.thumb
 160              		.thumb_func
 161              		.type	isr_rx_net_Enable, %function
 162              	isr_rx_net_Enable:
 163              	.LFB71:
ARM GAS  C:\Users\li\AppData\Local\Temp\cchkWkCc.s 			page 9


 294:.\Generated_Source\PSoC5/isr_rx_net.c **** 
 295:.\Generated_Source\PSoC5/isr_rx_net.c **** 
 296:.\Generated_Source\PSoC5/isr_rx_net.c **** /*******************************************************************************
 297:.\Generated_Source\PSoC5/isr_rx_net.c **** * Function Name: isr_rx_net_Enable
 298:.\Generated_Source\PSoC5/isr_rx_net.c **** ********************************************************************************
 299:.\Generated_Source\PSoC5/isr_rx_net.c **** *
 300:.\Generated_Source\PSoC5/isr_rx_net.c **** * Summary:
 301:.\Generated_Source\PSoC5/isr_rx_net.c **** *   Enables the interrupt to the interrupt controller. Do not call this function
 302:.\Generated_Source\PSoC5/isr_rx_net.c **** *   unless ISR_Start() has been called or the functionality of the ISR_Start() 
 303:.\Generated_Source\PSoC5/isr_rx_net.c **** *   function, which sets the vector and the priority, has been called.
 304:.\Generated_Source\PSoC5/isr_rx_net.c **** *
 305:.\Generated_Source\PSoC5/isr_rx_net.c **** * Parameters:
 306:.\Generated_Source\PSoC5/isr_rx_net.c **** *   None
 307:.\Generated_Source\PSoC5/isr_rx_net.c **** *
 308:.\Generated_Source\PSoC5/isr_rx_net.c **** * Return:
 309:.\Generated_Source\PSoC5/isr_rx_net.c **** *   None
 310:.\Generated_Source\PSoC5/isr_rx_net.c **** *
 311:.\Generated_Source\PSoC5/isr_rx_net.c **** *******************************************************************************/
 312:.\Generated_Source\PSoC5/isr_rx_net.c **** void isr_rx_net_Enable(void)
 313:.\Generated_Source\PSoC5/isr_rx_net.c **** {
 164              		.loc 1 313 0
 165              		.cfi_startproc
 166              		@ args = 0, pretend = 0, frame = 0
 167              		@ frame_needed = 0, uses_anonymous_args = 0
 168              		@ link register save eliminated.
 314:.\Generated_Source\PSoC5/isr_rx_net.c ****     /* Enable the general interrupt. */
 315:.\Generated_Source\PSoC5/isr_rx_net.c ****     *isr_rx_net_INTC_SET_EN = isr_rx_net__INTC_MASK;
 169              		.loc 1 315 0
 170 0000 0222     		movs	r2, #2
 171 0002 014B     		ldr	r3, .L16
 172 0004 1A60     		str	r2, [r3]
 173 0006 7047     		bx	lr
 174              	.L17:
 175              		.align	2
 176              	.L16:
 177 0008 00E100E0 		.word	-536813312
 178              		.cfi_endproc
 179              	.LFE71:
 180              		.size	isr_rx_net_Enable, .-isr_rx_net_Enable
 181              		.section	.text.isr_rx_net_GetState,"ax",%progbits
 182              		.align	2
 183              		.global	isr_rx_net_GetState
 184              		.thumb
 185              		.thumb_func
 186              		.type	isr_rx_net_GetState, %function
 187              	isr_rx_net_GetState:
 188              	.LFB72:
 316:.\Generated_Source\PSoC5/isr_rx_net.c **** }
 317:.\Generated_Source\PSoC5/isr_rx_net.c **** 
 318:.\Generated_Source\PSoC5/isr_rx_net.c **** 
 319:.\Generated_Source\PSoC5/isr_rx_net.c **** /*******************************************************************************
 320:.\Generated_Source\PSoC5/isr_rx_net.c **** * Function Name: isr_rx_net_GetState
 321:.\Generated_Source\PSoC5/isr_rx_net.c **** ********************************************************************************
 322:.\Generated_Source\PSoC5/isr_rx_net.c **** *
 323:.\Generated_Source\PSoC5/isr_rx_net.c **** * Summary:
 324:.\Generated_Source\PSoC5/isr_rx_net.c **** *   Gets the state (enabled, disabled) of the Interrupt.
 325:.\Generated_Source\PSoC5/isr_rx_net.c **** *
ARM GAS  C:\Users\li\AppData\Local\Temp\cchkWkCc.s 			page 10


 326:.\Generated_Source\PSoC5/isr_rx_net.c **** * Parameters:
 327:.\Generated_Source\PSoC5/isr_rx_net.c **** *   None
 328:.\Generated_Source\PSoC5/isr_rx_net.c **** *
 329:.\Generated_Source\PSoC5/isr_rx_net.c **** * Return:
 330:.\Generated_Source\PSoC5/isr_rx_net.c **** *   1 if enabled, 0 if disabled.
 331:.\Generated_Source\PSoC5/isr_rx_net.c **** *
 332:.\Generated_Source\PSoC5/isr_rx_net.c **** *******************************************************************************/
 333:.\Generated_Source\PSoC5/isr_rx_net.c **** uint8 isr_rx_net_GetState(void)
 334:.\Generated_Source\PSoC5/isr_rx_net.c **** {
 189              		.loc 1 334 0
 190              		.cfi_startproc
 191              		@ args = 0, pretend = 0, frame = 0
 192              		@ frame_needed = 0, uses_anonymous_args = 0
 193              		@ link register save eliminated.
 335:.\Generated_Source\PSoC5/isr_rx_net.c ****     /* Get the state of the general interrupt. */
 336:.\Generated_Source\PSoC5/isr_rx_net.c ****     return ((*isr_rx_net_INTC_SET_EN & (uint32)isr_rx_net__INTC_MASK) != 0u) ? 1u:0u;
 194              		.loc 1 336 0
 195 0000 044B     		ldr	r3, .L21
 196 0002 1B68     		ldr	r3, [r3]
 197 0004 13F0020F 		tst	r3, #2
 198 0008 01D0     		beq	.L20
 199 000a 0120     		movs	r0, #1
 200 000c 7047     		bx	lr
 201              	.L20:
 202 000e 0020     		movs	r0, #0
 337:.\Generated_Source\PSoC5/isr_rx_net.c **** }
 203              		.loc 1 337 0
 204 0010 7047     		bx	lr
 205              	.L22:
 206 0012 00BF     		.align	2
 207              	.L21:
 208 0014 00E100E0 		.word	-536813312
 209              		.cfi_endproc
 210              	.LFE72:
 211              		.size	isr_rx_net_GetState, .-isr_rx_net_GetState
 212              		.section	.text.isr_rx_net_Disable,"ax",%progbits
 213              		.align	2
 214              		.global	isr_rx_net_Disable
 215              		.thumb
 216              		.thumb_func
 217              		.type	isr_rx_net_Disable, %function
 218              	isr_rx_net_Disable:
 219              	.LFB73:
 338:.\Generated_Source\PSoC5/isr_rx_net.c **** 
 339:.\Generated_Source\PSoC5/isr_rx_net.c **** 
 340:.\Generated_Source\PSoC5/isr_rx_net.c **** /*******************************************************************************
 341:.\Generated_Source\PSoC5/isr_rx_net.c **** * Function Name: isr_rx_net_Disable
 342:.\Generated_Source\PSoC5/isr_rx_net.c **** ********************************************************************************
 343:.\Generated_Source\PSoC5/isr_rx_net.c **** *
 344:.\Generated_Source\PSoC5/isr_rx_net.c **** * Summary:
 345:.\Generated_Source\PSoC5/isr_rx_net.c **** *   Disables the Interrupt in the interrupt controller.
 346:.\Generated_Source\PSoC5/isr_rx_net.c **** *
 347:.\Generated_Source\PSoC5/isr_rx_net.c **** * Parameters:
 348:.\Generated_Source\PSoC5/isr_rx_net.c **** *   None
 349:.\Generated_Source\PSoC5/isr_rx_net.c **** *
 350:.\Generated_Source\PSoC5/isr_rx_net.c **** * Return:
 351:.\Generated_Source\PSoC5/isr_rx_net.c **** *   None
ARM GAS  C:\Users\li\AppData\Local\Temp\cchkWkCc.s 			page 11


 352:.\Generated_Source\PSoC5/isr_rx_net.c **** *
 353:.\Generated_Source\PSoC5/isr_rx_net.c **** *******************************************************************************/
 354:.\Generated_Source\PSoC5/isr_rx_net.c **** void isr_rx_net_Disable(void)
 355:.\Generated_Source\PSoC5/isr_rx_net.c **** {
 220              		.loc 1 355 0
 221              		.cfi_startproc
 222              		@ args = 0, pretend = 0, frame = 0
 223              		@ frame_needed = 0, uses_anonymous_args = 0
 224              		@ link register save eliminated.
 356:.\Generated_Source\PSoC5/isr_rx_net.c ****     /* Disable the general interrupt. */
 357:.\Generated_Source\PSoC5/isr_rx_net.c ****     *isr_rx_net_INTC_CLR_EN = isr_rx_net__INTC_MASK;
 225              		.loc 1 357 0
 226 0000 0222     		movs	r2, #2
 227 0002 014B     		ldr	r3, .L24
 228 0004 1A60     		str	r2, [r3]
 229 0006 7047     		bx	lr
 230              	.L25:
 231              		.align	2
 232              	.L24:
 233 0008 80E100E0 		.word	-536813184
 234              		.cfi_endproc
 235              	.LFE73:
 236              		.size	isr_rx_net_Disable, .-isr_rx_net_Disable
 237              		.section	.text.isr_rx_net_Start,"ax",%progbits
 238              		.align	2
 239              		.global	isr_rx_net_Start
 240              		.thumb
 241              		.thumb_func
 242              		.type	isr_rx_net_Start, %function
 243              	isr_rx_net_Start:
 244              	.LFB63:
  65:.\Generated_Source\PSoC5/isr_rx_net.c ****     /* For all we know the interrupt is active. */
 245              		.loc 1 65 0
 246              		.cfi_startproc
 247              		@ args = 0, pretend = 0, frame = 0
 248              		@ frame_needed = 0, uses_anonymous_args = 0
 249 0000 08B5     		push	{r3, lr}
 250              		.cfi_def_cfa_offset 8
 251              		.cfi_offset 3, -8
 252              		.cfi_offset 14, -4
  67:.\Generated_Source\PSoC5/isr_rx_net.c **** 
 253              		.loc 1 67 0
 254 0002 FFF7FEFF 		bl	isr_rx_net_Disable
 255              	.LVL9:
  70:.\Generated_Source\PSoC5/isr_rx_net.c **** 
 256              		.loc 1 70 0
 257 0006 0448     		ldr	r0, .L28
 258 0008 FFF7FEFF 		bl	isr_rx_net_SetVector
 259              	.LVL10:
  73:.\Generated_Source\PSoC5/isr_rx_net.c **** 
 260              		.loc 1 73 0
 261 000c 0720     		movs	r0, #7
 262 000e FFF7FEFF 		bl	isr_rx_net_SetPriority
 263              	.LVL11:
  76:.\Generated_Source\PSoC5/isr_rx_net.c **** }
 264              		.loc 1 76 0
 265 0012 FFF7FEFF 		bl	isr_rx_net_Enable
ARM GAS  C:\Users\li\AppData\Local\Temp\cchkWkCc.s 			page 12


 266              	.LVL12:
 267 0016 08BD     		pop	{r3, pc}
 268              	.L29:
 269              		.align	2
 270              	.L28:
 271 0018 00000000 		.word	isr_rx_net_Interrupt
 272              		.cfi_endproc
 273              	.LFE63:
 274              		.size	isr_rx_net_Start, .-isr_rx_net_Start
 275              		.section	.text.isr_rx_net_StartEx,"ax",%progbits
 276              		.align	2
 277              		.global	isr_rx_net_StartEx
 278              		.thumb
 279              		.thumb_func
 280              		.type	isr_rx_net_StartEx, %function
 281              	isr_rx_net_StartEx:
 282              	.LFB64:
 108:.\Generated_Source\PSoC5/isr_rx_net.c ****     /* For all we know the interrupt is active. */
 283              		.loc 1 108 0
 284              		.cfi_startproc
 285              		@ args = 0, pretend = 0, frame = 0
 286              		@ frame_needed = 0, uses_anonymous_args = 0
 287              	.LVL13:
 288 0000 10B5     		push	{r4, lr}
 289              		.cfi_def_cfa_offset 8
 290              		.cfi_offset 4, -8
 291              		.cfi_offset 14, -4
 292 0002 0446     		mov	r4, r0
 110:.\Generated_Source\PSoC5/isr_rx_net.c **** 
 293              		.loc 1 110 0
 294 0004 FFF7FEFF 		bl	isr_rx_net_Disable
 295              	.LVL14:
 113:.\Generated_Source\PSoC5/isr_rx_net.c **** 
 296              		.loc 1 113 0
 297 0008 2046     		mov	r0, r4
 298 000a FFF7FEFF 		bl	isr_rx_net_SetVector
 299              	.LVL15:
 116:.\Generated_Source\PSoC5/isr_rx_net.c **** 
 300              		.loc 1 116 0
 301 000e 0720     		movs	r0, #7
 302 0010 FFF7FEFF 		bl	isr_rx_net_SetPriority
 303              	.LVL16:
 119:.\Generated_Source\PSoC5/isr_rx_net.c **** }
 304              		.loc 1 119 0
 305 0014 FFF7FEFF 		bl	isr_rx_net_Enable
 306              	.LVL17:
 307 0018 10BD     		pop	{r4, pc}
 308              		.cfi_endproc
 309              	.LFE64:
 310              		.size	isr_rx_net_StartEx, .-isr_rx_net_StartEx
 311 001a 00BF     		.section	.text.isr_rx_net_Stop,"ax",%progbits
 312              		.align	2
 313              		.global	isr_rx_net_Stop
 314              		.thumb
 315              		.thumb_func
 316              		.type	isr_rx_net_Stop, %function
 317              	isr_rx_net_Stop:
ARM GAS  C:\Users\li\AppData\Local\Temp\cchkWkCc.s 			page 13


 318              	.LFB65:
 138:.\Generated_Source\PSoC5/isr_rx_net.c ****     /* Disable this interrupt. */
 319              		.loc 1 138 0
 320              		.cfi_startproc
 321              		@ args = 0, pretend = 0, frame = 0
 322              		@ frame_needed = 0, uses_anonymous_args = 0
 323 0000 08B5     		push	{r3, lr}
 324              		.cfi_def_cfa_offset 8
 325              		.cfi_offset 3, -8
 326              		.cfi_offset 14, -4
 140:.\Generated_Source\PSoC5/isr_rx_net.c **** 
 327              		.loc 1 140 0
 328 0002 FFF7FEFF 		bl	isr_rx_net_Disable
 329              	.LVL18:
 143:.\Generated_Source\PSoC5/isr_rx_net.c **** }
 330              		.loc 1 143 0
 331 0006 0248     		ldr	r0, .L34
 332 0008 FFF7FEFF 		bl	isr_rx_net_SetVector
 333              	.LVL19:
 334 000c 08BD     		pop	{r3, pc}
 335              	.L35:
 336 000e 00BF     		.align	2
 337              	.L34:
 338 0010 00000000 		.word	IntDefaultHandler
 339              		.cfi_endproc
 340              	.LFE65:
 341              		.size	isr_rx_net_Stop, .-isr_rx_net_Stop
 342              		.section	.text.isr_rx_net_SetPending,"ax",%progbits
 343              		.align	2
 344              		.global	isr_rx_net_SetPending
 345              		.thumb
 346              		.thumb_func
 347              		.type	isr_rx_net_SetPending, %function
 348              	isr_rx_net_SetPending:
 349              	.LFB74:
 358:.\Generated_Source\PSoC5/isr_rx_net.c **** }
 359:.\Generated_Source\PSoC5/isr_rx_net.c **** 
 360:.\Generated_Source\PSoC5/isr_rx_net.c **** 
 361:.\Generated_Source\PSoC5/isr_rx_net.c **** /*******************************************************************************
 362:.\Generated_Source\PSoC5/isr_rx_net.c **** * Function Name: isr_rx_net_SetPending
 363:.\Generated_Source\PSoC5/isr_rx_net.c **** ********************************************************************************
 364:.\Generated_Source\PSoC5/isr_rx_net.c **** *
 365:.\Generated_Source\PSoC5/isr_rx_net.c **** * Summary:
 366:.\Generated_Source\PSoC5/isr_rx_net.c **** *   Causes the Interrupt to enter the pending state, a software method of
 367:.\Generated_Source\PSoC5/isr_rx_net.c **** *   generating the interrupt.
 368:.\Generated_Source\PSoC5/isr_rx_net.c **** *
 369:.\Generated_Source\PSoC5/isr_rx_net.c **** * Parameters:
 370:.\Generated_Source\PSoC5/isr_rx_net.c **** *   None
 371:.\Generated_Source\PSoC5/isr_rx_net.c **** *
 372:.\Generated_Source\PSoC5/isr_rx_net.c **** * Return:
 373:.\Generated_Source\PSoC5/isr_rx_net.c **** *   None
 374:.\Generated_Source\PSoC5/isr_rx_net.c **** *
 375:.\Generated_Source\PSoC5/isr_rx_net.c **** * Side Effects:
 376:.\Generated_Source\PSoC5/isr_rx_net.c **** *   If interrupts are enabled and the interrupt is set up properly, the ISR is
 377:.\Generated_Source\PSoC5/isr_rx_net.c **** *   entered (depending on the priority of this interrupt and other pending 
 378:.\Generated_Source\PSoC5/isr_rx_net.c **** *   interrupts).
 379:.\Generated_Source\PSoC5/isr_rx_net.c **** *
ARM GAS  C:\Users\li\AppData\Local\Temp\cchkWkCc.s 			page 14


 380:.\Generated_Source\PSoC5/isr_rx_net.c **** *******************************************************************************/
 381:.\Generated_Source\PSoC5/isr_rx_net.c **** void isr_rx_net_SetPending(void)
 382:.\Generated_Source\PSoC5/isr_rx_net.c **** {
 350              		.loc 1 382 0
 351              		.cfi_startproc
 352              		@ args = 0, pretend = 0, frame = 0
 353              		@ frame_needed = 0, uses_anonymous_args = 0
 354              		@ link register save eliminated.
 383:.\Generated_Source\PSoC5/isr_rx_net.c ****     *isr_rx_net_INTC_SET_PD = isr_rx_net__INTC_MASK;
 355              		.loc 1 383 0
 356 0000 0222     		movs	r2, #2
 357 0002 014B     		ldr	r3, .L37
 358 0004 1A60     		str	r2, [r3]
 359 0006 7047     		bx	lr
 360              	.L38:
 361              		.align	2
 362              	.L37:
 363 0008 00E200E0 		.word	-536813056
 364              		.cfi_endproc
 365              	.LFE74:
 366              		.size	isr_rx_net_SetPending, .-isr_rx_net_SetPending
 367              		.section	.text.isr_rx_net_ClearPending,"ax",%progbits
 368              		.align	2
 369              		.global	isr_rx_net_ClearPending
 370              		.thumb
 371              		.thumb_func
 372              		.type	isr_rx_net_ClearPending, %function
 373              	isr_rx_net_ClearPending:
 374              	.LFB75:
 384:.\Generated_Source\PSoC5/isr_rx_net.c **** }
 385:.\Generated_Source\PSoC5/isr_rx_net.c **** 
 386:.\Generated_Source\PSoC5/isr_rx_net.c **** 
 387:.\Generated_Source\PSoC5/isr_rx_net.c **** /*******************************************************************************
 388:.\Generated_Source\PSoC5/isr_rx_net.c **** * Function Name: isr_rx_net_ClearPending
 389:.\Generated_Source\PSoC5/isr_rx_net.c **** ********************************************************************************
 390:.\Generated_Source\PSoC5/isr_rx_net.c **** *
 391:.\Generated_Source\PSoC5/isr_rx_net.c **** * Summary:
 392:.\Generated_Source\PSoC5/isr_rx_net.c **** *   Clears a pending interrupt in the interrupt controller.
 393:.\Generated_Source\PSoC5/isr_rx_net.c **** *
 394:.\Generated_Source\PSoC5/isr_rx_net.c **** *   Note Some interrupt sources are clear-on-read and require the block 
 395:.\Generated_Source\PSoC5/isr_rx_net.c **** *   interrupt/status register to be read/cleared with the appropriate block API 
 396:.\Generated_Source\PSoC5/isr_rx_net.c **** *   (GPIO, UART, and so on). Otherwise the ISR will continue to remain in 
 397:.\Generated_Source\PSoC5/isr_rx_net.c **** *   pending state even though the interrupt itself is cleared using this API.
 398:.\Generated_Source\PSoC5/isr_rx_net.c **** *
 399:.\Generated_Source\PSoC5/isr_rx_net.c **** * Parameters:
 400:.\Generated_Source\PSoC5/isr_rx_net.c **** *   None
 401:.\Generated_Source\PSoC5/isr_rx_net.c **** *
 402:.\Generated_Source\PSoC5/isr_rx_net.c **** * Return:
 403:.\Generated_Source\PSoC5/isr_rx_net.c **** *   None
 404:.\Generated_Source\PSoC5/isr_rx_net.c **** *
 405:.\Generated_Source\PSoC5/isr_rx_net.c **** *******************************************************************************/
 406:.\Generated_Source\PSoC5/isr_rx_net.c **** void isr_rx_net_ClearPending(void)
 407:.\Generated_Source\PSoC5/isr_rx_net.c **** {
 375              		.loc 1 407 0
 376              		.cfi_startproc
 377              		@ args = 0, pretend = 0, frame = 0
 378              		@ frame_needed = 0, uses_anonymous_args = 0
ARM GAS  C:\Users\li\AppData\Local\Temp\cchkWkCc.s 			page 15


 379              		@ link register save eliminated.
 408:.\Generated_Source\PSoC5/isr_rx_net.c ****     *isr_rx_net_INTC_CLR_PD = isr_rx_net__INTC_MASK;
 380              		.loc 1 408 0
 381 0000 0222     		movs	r2, #2
 382 0002 014B     		ldr	r3, .L40
 383 0004 1A60     		str	r2, [r3]
 384 0006 7047     		bx	lr
 385              	.L41:
 386              		.align	2
 387              	.L40:
 388 0008 80E200E0 		.word	-536812928
 389              		.cfi_endproc
 390              	.LFE75:
 391              		.size	isr_rx_net_ClearPending, .-isr_rx_net_ClearPending
 392              		.comm	data1,1,1
 393              		.comm	data,1,1
 394              		.comm	g_WireReel,6,4
 395              		.comm	g_Car,32,4
 396              		.text
 397              	.Letext0:
 398              		.file 2 "c:\\program files (x86)\\cypress\\psoc creator\\3.3\\psoc creator\\import\\gnu\\arm\\4.9.
 399              		.file 3 "c:\\program files (x86)\\cypress\\psoc creator\\3.3\\psoc creator\\import\\gnu\\arm\\4.9.
 400              		.file 4 "Generated_Source\\PSoC5/cytypes.h"
 401              		.file 5 "./WireReel.h"
 402              		.file 6 "Generated_Source\\PSoC5/core_cm3.h"
 403              		.file 7 ".\\Generated_Source\\PSoC5\\UART_net.h"
 404              		.file 8 "./Transfer.h"