ARM GAS  C:\Users\li\AppData\Local\Temp\ccUARutp.s 			page 1


   1              		.syntax unified
   2              		.cpu cortex-m3
   3              		.fpu softvfp
   4              		.eabi_attribute 20, 1
   5              		.eabi_attribute 21, 1
   6              		.eabi_attribute 23, 3
   7              		.eabi_attribute 24, 1
   8              		.eabi_attribute 25, 1
   9              		.eabi_attribute 26, 1
  10              		.eabi_attribute 30, 1
  11              		.eabi_attribute 34, 1
  12              		.eabi_attribute 18, 4
  13              		.thumb
  14              		.file	"V_battery.c"
  15              		.text
  16              	.Ltext0:
  17              		.cfi_sections	.debug_frame
  18              		.section	.text.Monitor_Battery_Init,"ax",%progbits
  19              		.align	2
  20              		.global	Monitor_Battery_Init
  21              		.thumb
  22              		.thumb_func
  23              		.type	Monitor_Battery_Init, %function
  24              	Monitor_Battery_Init:
  25              	.LFB63:
  26              		.file 1 ".\\V_battery.c"
   1:.\V_battery.c **** /* ========================================
   2:.\V_battery.c ****  *
   3:.\V_battery.c ****  * Copyright YOUR COMPANY, THE YEAR
   4:.\V_battery.c ****  * All Rights Reserved
   5:.\V_battery.c ****  * UNPUBLISHED, LICENSED SOFTWARE.
   6:.\V_battery.c ****  *
   7:.\V_battery.c ****  * CONFIDENTIAL AND PROPRIETARY INFORMATION
   8:.\V_battery.c ****  * WHICH IS THE PROPERTY OF your company.
   9:.\V_battery.c ****  *
  10:.\V_battery.c ****  * ========================================
  11:.\V_battery.c **** */
  12:.\V_battery.c **** #include "V_battery.h"
  13:.\V_battery.c **** #include "WireReel.h"
  14:.\V_battery.c **** 
  15:.\V_battery.c **** 
  16:.\V_battery.c **** 
  17:.\V_battery.c **** int16 retADCValue1[SampleNum] = {0};
  18:.\V_battery.c **** int16 retADCValue2[SampleNum] = {0};
  19:.\V_battery.c **** 
  20:.\V_battery.c **** void Monitor_Battery_Init()
  21:.\V_battery.c **** {
  27              		.loc 1 21 0
  28              		.cfi_startproc
  29              		@ args = 0, pretend = 0, frame = 0
  30              		@ frame_needed = 0, uses_anonymous_args = 0
  31 0000 08B5     		push	{r3, lr}
  32              		.cfi_def_cfa_offset 8
  33              		.cfi_offset 3, -8
  34              		.cfi_offset 14, -4
  22:.\V_battery.c ****     ADC_Start();
  35              		.loc 1 22 0
ARM GAS  C:\Users\li\AppData\Local\Temp\ccUARutp.s 			page 2


  36 0002 FFF7FEFF 		bl	ADC_Start
  37              	.LVL0:
  23:.\V_battery.c ****     ADC_StartConvert();
  38              		.loc 1 23 0
  39 0006 FFF7FEFF 		bl	ADC_StartConvert
  40              	.LVL1:
  41 000a 08BD     		pop	{r3, pc}
  42              		.cfi_endproc
  43              	.LFE63:
  44              		.size	Monitor_Battery_Init, .-Monitor_Battery_Init
  45              		.section	.text.Get_Battery_ADvalue,"ax",%progbits
  46              		.align	2
  47              		.global	Get_Battery_ADvalue
  48              		.thumb
  49              		.thumb_func
  50              		.type	Get_Battery_ADvalue, %function
  51              	Get_Battery_ADvalue:
  52              	.LFB64:
  24:.\V_battery.c ****     
  25:.\V_battery.c **** }
  26:.\V_battery.c **** //int16 Get_C_Battery_ADvalue(void)
  27:.\V_battery.c **** //{
  28:.\V_battery.c **** //
  29:.\V_battery.c **** //    uint8 i = 0;
  30:.\V_battery.c **** //    int16 retval = 0;
  31:.\V_battery.c **** //    int32 sum = 0;
  32:.\V_battery.c **** //    for(i = 0;i < SampleNum;i++)
  33:.\V_battery.c **** //    {
  34:.\V_battery.c **** //        retADCValue2[i] = C_Battery_GetResult16();
  35:.\V_battery.c **** //    
  36:.\V_battery.c **** //    }
  37:.\V_battery.c **** //
  38:.\V_battery.c **** //    for(i = 0;i < SampleNum;i++)
  39:.\V_battery.c **** //    {
  40:.\V_battery.c **** //        sum += retADCValue2[i];
  41:.\V_battery.c **** //    }
  42:.\V_battery.c **** //    retval = sum/SampleNum;
  43:.\V_battery.c **** //    return retval;
  44:.\V_battery.c **** //    
  45:.\V_battery.c **** //}
  46:.\V_battery.c **** uint16 Get_Battery_ADvalue()
  47:.\V_battery.c **** {
  53              		.loc 1 47 0
  54              		.cfi_startproc
  55              		@ args = 0, pretend = 0, frame = 0
  56              		@ frame_needed = 0, uses_anonymous_args = 0
  57 0000 10B5     		push	{r4, lr}
  58              		.cfi_def_cfa_offset 8
  59              		.cfi_offset 4, -8
  60              		.cfi_offset 14, -4
  61              	.LVL2:
  48:.\V_battery.c **** 
  49:.\V_battery.c ****     uint8 i = 0;
  50:.\V_battery.c ****     int16 retval = 0;
  51:.\V_battery.c ****     int32 sum = 0;
  52:.\V_battery.c ****     for(i = 0;i < SampleNum;i++)
  62              		.loc 1 52 0
ARM GAS  C:\Users\li\AppData\Local\Temp\ccUARutp.s 			page 3


  63 0002 0024     		movs	r4, #0
  64 0004 06E0     		b	.L4
  65              	.LVL3:
  66              	.L5:
  53:.\V_battery.c ****     {
  54:.\V_battery.c ****         retADCValue2[i] = ADC_GetResult16();
  67              		.loc 1 54 0 discriminator 3
  68 0006 FFF7FEFF 		bl	ADC_GetResult16
  69              	.LVL4:
  70 000a 0D4B     		ldr	r3, .L9
  71 000c 23F81400 		strh	r0, [r3, r4, lsl #1]	@ movhi
  52:.\V_battery.c ****     {
  72              		.loc 1 52 0 discriminator 3
  73 0010 0134     		adds	r4, r4, #1
  74              	.LVL5:
  75 0012 E4B2     		uxtb	r4, r4
  76              	.LVL6:
  77              	.L4:
  52:.\V_battery.c ****     {
  78              		.loc 1 52 0 is_stmt 0 discriminator 1
  79 0014 632C     		cmp	r4, #99
  80 0016 F6D9     		bls	.L5
  81 0018 0022     		movs	r2, #0
  82 001a 1346     		mov	r3, r2
  83 001c 05E0     		b	.L6
  84              	.LVL7:
  85              	.L7:
  55:.\V_battery.c ****     
  56:.\V_battery.c ****     }
  57:.\V_battery.c **** 
  58:.\V_battery.c ****     for(i = 0;i < SampleNum;i++)
  59:.\V_battery.c ****     {
  60:.\V_battery.c ****         sum += retADCValue2[i];
  86              		.loc 1 60 0 is_stmt 1 discriminator 3
  87 001e 0849     		ldr	r1, .L9
  88 0020 31F91310 		ldrsh	r1, [r1, r3, lsl #1]
  89 0024 0A44     		add	r2, r2, r1
  90              	.LVL8:
  58:.\V_battery.c ****     {
  91              		.loc 1 58 0 discriminator 3
  92 0026 0133     		adds	r3, r3, #1
  93              	.LVL9:
  94 0028 DBB2     		uxtb	r3, r3
  95              	.LVL10:
  96              	.L6:
  58:.\V_battery.c ****     {
  97              		.loc 1 58 0 is_stmt 0 discriminator 1
  98 002a 632B     		cmp	r3, #99
  99 002c F7D9     		bls	.L7
  61:.\V_battery.c ****     }
  62:.\V_battery.c ****     retval = sum/SampleNum;
 100              		.loc 1 62 0 is_stmt 1
 101 002e 0548     		ldr	r0, .L9+4
 102 0030 80FB0230 		smull	r3, r0, r0, r2
 103              	.LVL11:
 104 0034 D217     		asrs	r2, r2, #31
 105              	.LVL12:
ARM GAS  C:\Users\li\AppData\Local\Temp\ccUARutp.s 			page 4


 106 0036 C2EB6010 		rsb	r0, r2, r0, asr #5
 107              	.LVL13:
  63:.\V_battery.c ****     return retval;
  64:.\V_battery.c ****     
  65:.\V_battery.c **** }
 108              		.loc 1 65 0
 109 003a 80B2     		uxth	r0, r0
 110 003c 10BD     		pop	{r4, pc}
 111              	.L10:
 112 003e 00BF     		.align	2
 113              	.L9:
 114 0040 00000000 		.word	.LANCHOR0
 115 0044 1F85EB51 		.word	1374389535
 116              		.cfi_endproc
 117              	.LFE64:
 118              		.size	Get_Battery_ADvalue, .-Get_Battery_ADvalue
 119              		.section	.text.Cal_Battery_loop,"ax",%progbits
 120              		.align	2
 121              		.global	Cal_Battery_loop
 122              		.thumb
 123              		.thumb_func
 124              		.type	Cal_Battery_loop, %function
 125              	Cal_Battery_loop:
 126              	.LFB65:
  66:.\V_battery.c **** 
  67:.\V_battery.c **** void Cal_Battery_loop()
  68:.\V_battery.c **** {
 127              		.loc 1 68 0
 128              		.cfi_startproc
 129              		@ args = 0, pretend = 0, frame = 0
 130              		@ frame_needed = 0, uses_anonymous_args = 0
 131 0000 08B5     		push	{r3, lr}
 132              		.cfi_def_cfa_offset 8
 133              		.cfi_offset 3, -8
 134              		.cfi_offset 14, -4
  69:.\V_battery.c ****     g_WireReel.B_V = Get_Battery_ADvalue();
 135              		.loc 1 69 0
 136 0002 FFF7FEFF 		bl	Get_Battery_ADvalue
 137              	.LVL14:
 138 0006 014B     		ldr	r3, .L13
 139 0008 9880     		strh	r0, [r3, #4]	@ movhi
 140 000a 08BD     		pop	{r3, pc}
 141              	.L14:
 142              		.align	2
 143              	.L13:
 144 000c 00000000 		.word	g_WireReel
 145              		.cfi_endproc
 146              	.LFE65:
 147              		.size	Cal_Battery_loop, .-Cal_Battery_loop
 148              		.global	retADCValue2
 149              		.global	retADCValue1
 150              		.comm	g_WireReel,6,4
 151              		.comm	g_Car,32,4
 152              		.comm	B_V,2,2
 153              		.bss
 154              		.align	2
 155              		.set	.LANCHOR0,. + 0
ARM GAS  C:\Users\li\AppData\Local\Temp\ccUARutp.s 			page 5


 156              		.type	retADCValue2, %object
 157              		.size	retADCValue2, 200
 158              	retADCValue2:
 159 0000 00000000 		.space	200
 159      00000000 
 159      00000000 
 159      00000000 
 159      00000000 
 160              		.type	retADCValue1, %object
 161              		.size	retADCValue1, 200
 162              	retADCValue1:
 163 00c8 00000000 		.space	200
 163      00000000 
 163      00000000 
 163      00000000 
 163      00000000 
 164              		.text
 165              	.Letext0:
 166              		.file 2 "c:\\program files (x86)\\cypress\\psoc creator\\3.3\\psoc creator\\import\\gnu\\arm\\4.9.
 167              		.file 3 "c:\\program files (x86)\\cypress\\psoc creator\\3.3\\psoc creator\\import\\gnu\\arm\\4.9.
 168              		.file 4 "Generated_Source\\PSoC5/cytypes.h"
 169              		.file 5 ".\\WireReel.h"
 170              		.file 6 "Generated_Source\\PSoC5/core_cm3.h"
 171              		.file 7 "Generated_Source\\PSoC5/ADC.h"
 172              		.file 8 ".\\V_battery.h"