ARM GAS  C:\Users\li\AppData\Local\Temp\ccFnSUeJ.s 			page 1


   1              		.syntax unified
   2              		.cpu cortex-m3
   3              		.fpu softvfp
   4              		.eabi_attribute 20, 1
   5              		.eabi_attribute 21, 1
   6              		.eabi_attribute 23, 3
   7              		.eabi_attribute 24, 1
   8              		.eabi_attribute 25, 1
   9              		.eabi_attribute 26, 1
  10              		.eabi_attribute 30, 1
  11              		.eabi_attribute 34, 1
  12              		.eabi_attribute 18, 4
  13              		.thumb
  14              		.file	"WireReel.c"
  15              		.text
  16              	.Ltext0:
  17              		.cfi_sections	.debug_frame
  18              		.section	.text.WireReel_init,"ax",%progbits
  19              		.align	2
  20              		.global	WireReel_init
  21              		.thumb
  22              		.thumb_func
  23              		.type	WireReel_init, %function
  24              	WireReel_init:
  25              	.LFB63:
  26              		.file 1 ".\\WireReel.c"
   1:.\WireReel.c  **** /* ========================================
   2:.\WireReel.c  ****  *
   3:.\WireReel.c  ****  * Copyright YOUR COMPANY, THE YEAR
   4:.\WireReel.c  ****  * All Rights Reserved
   5:.\WireReel.c  ****  * UNPUBLISHED, LICENSED SOFTWARE.
   6:.\WireReel.c  ****  *
   7:.\WireReel.c  ****  * CONFIDENTIAL AND PROPRIETARY INFORMATION
   8:.\WireReel.c  ****  * WHICH IS THE PROPERTY OF your company.
   9:.\WireReel.c  ****  *
  10:.\WireReel.c  ****  * ========================================
  11:.\WireReel.c  **** */
  12:.\WireReel.c  **** #include "WireReel.h"
  13:.\WireReel.c  **** 
  14:.\WireReel.c  **** static uint8 togle;
  15:.\WireReel.c  **** void WireReel_init()
  16:.\WireReel.c  **** {
  27              		.loc 1 16 0
  28              		.cfi_startproc
  29              		@ args = 0, pretend = 0, frame = 0
  30              		@ frame_needed = 0, uses_anonymous_args = 0
  31              		@ link register save eliminated.
  17:.\WireReel.c  ****     g_WireReel.run_state = 1;
  32              		.loc 1 17 0
  33 0000 0122     		movs	r2, #1
  34 0002 014B     		ldr	r3, .L2
  35 0004 1A70     		strb	r2, [r3]
  36 0006 7047     		bx	lr
  37              	.L3:
  38              		.align	2
  39              	.L2:
  40 0008 00000000 		.word	g_WireReel
ARM GAS  C:\Users\li\AppData\Local\Temp\ccFnSUeJ.s 			page 2


  41              		.cfi_endproc
  42              	.LFE63:
  43              		.size	WireReel_init, .-WireReel_init
  44              		.section	.text.WireReel_Hearting_Loop,"ax",%progbits
  45              		.align	2
  46              		.global	WireReel_Hearting_Loop
  47              		.thumb
  48              		.thumb_func
  49              		.type	WireReel_Hearting_Loop, %function
  50              	WireReel_Hearting_Loop:
  51              	.LFB64:
  18:.\WireReel.c  **** }
  19:.\WireReel.c  **** void WireReel_Hearting_Loop()
  20:.\WireReel.c  **** {
  52              		.loc 1 20 0
  53              		.cfi_startproc
  54              		@ args = 0, pretend = 0, frame = 0
  55              		@ frame_needed = 0, uses_anonymous_args = 0
  56              		@ link register save eliminated.
  21:.\WireReel.c  ****     if(g_WireReel.hearting == 1  )
  57              		.loc 1 21 0
  58 0000 064B     		ldr	r3, .L7
  59 0002 5B78     		ldrb	r3, [r3, #1]	@ zero_extendqisi2
  60 0004 012B     		cmp	r3, #1
  61 0006 04D1     		bne	.L5
  22:.\WireReel.c  ****     {
  23:.\WireReel.c  ****         g_WireReel.hearting = 0;
  62              		.loc 1 23 0
  63 0008 044B     		ldr	r3, .L7
  64 000a 0022     		movs	r2, #0
  65 000c 5A70     		strb	r2, [r3, #1]
  24:.\WireReel.c  ****         g_WireReel.error = 0;
  66              		.loc 1 24 0
  67 000e 9A70     		strb	r2, [r3, #2]
  68 0010 7047     		bx	lr
  69              	.L5:
  25:.\WireReel.c  ****     }
  26:.\WireReel.c  ****     else
  27:.\WireReel.c  ****     {
  28:.\WireReel.c  ****         g_WireReel.error = 1;
  70              		.loc 1 28 0
  71 0012 0122     		movs	r2, #1
  72 0014 014B     		ldr	r3, .L7
  73 0016 9A70     		strb	r2, [r3, #2]
  74 0018 7047     		bx	lr
  75              	.L8:
  76 001a 00BF     		.align	2
  77              	.L7:
  78 001c 00000000 		.word	g_WireReel
  79              		.cfi_endproc
  80              	.LFE64:
  81              		.size	WireReel_Hearting_Loop, .-WireReel_Hearting_Loop
  82              		.section	.text.WireReel_control_Loop,"ax",%progbits
  83              		.align	2
  84              		.global	WireReel_control_Loop
  85              		.thumb
  86              		.thumb_func
ARM GAS  C:\Users\li\AppData\Local\Temp\ccFnSUeJ.s 			page 3


  87              		.type	WireReel_control_Loop, %function
  88              	WireReel_control_Loop:
  89              	.LFB65:
  29:.\WireReel.c  ****     }  
  30:.\WireReel.c  **** }      
  31:.\WireReel.c  **** void WireReel_control_Loop()
  32:.\WireReel.c  **** {
  90              		.loc 1 32 0
  91              		.cfi_startproc
  92              		@ args = 0, pretend = 0, frame = 0
  93              		@ frame_needed = 0, uses_anonymous_args = 0
  94 0000 08B5     		push	{r3, lr}
  95              		.cfi_def_cfa_offset 8
  96              		.cfi_offset 3, -8
  97              		.cfi_offset 14, -4
  33:.\WireReel.c  ****      if(g_WireReel.error == 0)
  98              		.loc 1 33 0
  99 0002 414B     		ldr	r3, .L20
 100 0004 9B78     		ldrb	r3, [r3, #2]	@ zero_extendqisi2
 101 0006 002B     		cmp	r3, #0
 102 0008 75D1     		bne	.L10
  34:.\WireReel.c  ****             {
  35:.\WireReel.c  ****                 if((g_Car.control_flag == 0 && g_Car.set_pull >100  && (g_Car.set_dir == 0))||g_Car
 103              		.loc 1 35 0
 104 000a 404B     		ldr	r3, .L20+4
 105 000c DB7D     		ldrb	r3, [r3, #23]	@ zero_extendqisi2
 106 000e 33B9     		cbnz	r3, .L11
 107              		.loc 1 35 0 is_stmt 0 discriminator 1
 108 0010 3E4B     		ldr	r3, .L20+4
 109 0012 9B8A     		ldrh	r3, [r3, #20]
 110 0014 642B     		cmp	r3, #100
 111 0016 02D9     		bls	.L11
 112              		.loc 1 35 0 discriminator 3
 113 0018 3C4B     		ldr	r3, .L20+4
 114 001a 5B78     		ldrb	r3, [r3, #1]	@ zero_extendqisi2
 115 001c 23B1     		cbz	r3, .L12
 116              	.L11:
 117              		.loc 1 35 0 discriminator 5
 118 001e 3B4B     		ldr	r3, .L20+4
 119 0020 9B8A     		ldrh	r3, [r3, #20]
 120 0022 B3F5FA6F 		cmp	r3, #2000
 121 0026 34D9     		bls	.L13
 122              	.L12:
  36:.\WireReel.c  ****                 {
  37:.\WireReel.c  ****                     if(g_Car.set_pull      >=   g_Car.pull_max )
 123              		.loc 1 37 0 is_stmt 1
 124 0028 384B     		ldr	r3, .L20+4
 125 002a 9A8A     		ldrh	r2, [r3, #20]
 126 002c 5B8B     		ldrh	r3, [r3, #26]
 127 002e 9A42     		cmp	r2, r3
 128 0030 12D3     		bcc	.L14
  38:.\WireReel.c  ****                     {
  39:.\WireReel.c  ****                         ENA_Write(1);
 129              		.loc 1 39 0
 130 0032 0120     		movs	r0, #1
 131 0034 FFF7FEFF 		bl	ENA_Write
 132              	.LVL0:
ARM GAS  C:\Users\li\AppData\Local\Temp\ccFnSUeJ.s 			page 4


  40:.\WireReel.c  ****                         CyDelayUs(20);
 133              		.loc 1 40 0
 134 0038 1420     		movs	r0, #20
 135 003a FFF7FEFF 		bl	CyDelayUs
 136              	.LVL1:
  41:.\WireReel.c  ****                         DIR_Write(1);
 137              		.loc 1 41 0
 138 003e 0120     		movs	r0, #1
 139 0040 FFF7FEFF 		bl	DIR_Write
 140              	.LVL2:
  42:.\WireReel.c  ****                         CyDelayUs(1000);
 141              		.loc 1 42 0
 142 0044 4FF47A70 		mov	r0, #1000
 143 0048 FFF7FEFF 		bl	CyDelayUs
 144              	.LVL3:
  43:.\WireReel.c  ****                         PWM_1_Start();
 145              		.loc 1 43 0
 146 004c FFF7FEFF 		bl	PWM_1_Start
 147              	.LVL4:
  44:.\WireReel.c  ****                         togle = 0;
 148              		.loc 1 44 0
 149 0050 0022     		movs	r2, #0
 150 0052 2F4B     		ldr	r3, .L20+8
 151 0054 1A70     		strb	r2, [r3]
 152 0056 08BD     		pop	{r3, pc}
 153              	.L14:
  45:.\WireReel.c  ****                     }
  46:.\WireReel.c  ****                     else if(g_Car.set_pull <=   g_Car.pull_min)
 154              		.loc 1 46 0
 155 0058 2C4B     		ldr	r3, .L20+4
 156 005a 9B8B     		ldrh	r3, [r3, #28]
 157 005c 9A42     		cmp	r2, r3
 158 005e 12D8     		bhi	.L16
  47:.\WireReel.c  ****                     {
  48:.\WireReel.c  ****                         ENA_Write(1);
 159              		.loc 1 48 0
 160 0060 0120     		movs	r0, #1
 161 0062 FFF7FEFF 		bl	ENA_Write
 162              	.LVL5:
  49:.\WireReel.c  ****                         CyDelayUs(20);
 163              		.loc 1 49 0
 164 0066 1420     		movs	r0, #20
 165 0068 FFF7FEFF 		bl	CyDelayUs
 166              	.LVL6:
  50:.\WireReel.c  ****                         DIR_Write(0);
 167              		.loc 1 50 0
 168 006c 0020     		movs	r0, #0
 169 006e FFF7FEFF 		bl	DIR_Write
 170              	.LVL7:
  51:.\WireReel.c  ****                         CyDelayUs(1000);
 171              		.loc 1 51 0
 172 0072 4FF47A70 		mov	r0, #1000
 173 0076 FFF7FEFF 		bl	CyDelayUs
 174              	.LVL8:
  52:.\WireReel.c  ****                         PWM_1_Start();
 175              		.loc 1 52 0
 176 007a FFF7FEFF 		bl	PWM_1_Start
ARM GAS  C:\Users\li\AppData\Local\Temp\ccFnSUeJ.s 			page 5


 177              	.LVL9:
  53:.\WireReel.c  ****                         togle = 0;
 178              		.loc 1 53 0
 179 007e 0022     		movs	r2, #0
 180 0080 234B     		ldr	r3, .L20+8
 181 0082 1A70     		strb	r2, [r3]
 182 0084 08BD     		pop	{r3, pc}
 183              	.L16:
  54:.\WireReel.c  ****                     }
  55:.\WireReel.c  ****                     else
  56:.\WireReel.c  ****                     {
  57:.\WireReel.c  ****                         ENA_Write(0);
 184              		.loc 1 57 0
 185 0086 0020     		movs	r0, #0
 186 0088 FFF7FEFF 		bl	ENA_Write
 187              	.LVL10:
  58:.\WireReel.c  ****                         PWM_1_Stop();
 188              		.loc 1 58 0
 189 008c FFF7FEFF 		bl	PWM_1_Stop
 190              	.LVL11:
 191 0090 08BD     		pop	{r3, pc}
 192              	.L13:
  59:.\WireReel.c  ****                     }
  60:.\WireReel.c  ****                 }
  61:.\WireReel.c  ****                 else
  62:.\WireReel.c  ****                 {
  63:.\WireReel.c  ****                     
  64:.\WireReel.c  ****                     if(g_Car.control_dir == 1)
 193              		.loc 1 64 0
 194 0092 1E4B     		ldr	r3, .L20+4
 195 0094 9B7D     		ldrb	r3, [r3, #22]	@ zero_extendqisi2
 196 0096 012B     		cmp	r3, #1
 197 0098 12D1     		bne	.L17
  65:.\WireReel.c  ****                     {
  66:.\WireReel.c  ****                         ENA_Write(1);
 198              		.loc 1 66 0
 199 009a 0120     		movs	r0, #1
 200 009c FFF7FEFF 		bl	ENA_Write
 201              	.LVL12:
  67:.\WireReel.c  ****                         CyDelayUs(20);
 202              		.loc 1 67 0
 203 00a0 1420     		movs	r0, #20
 204 00a2 FFF7FEFF 		bl	CyDelayUs
 205              	.LVL13:
  68:.\WireReel.c  ****                         DIR_Write(1);
 206              		.loc 1 68 0
 207 00a6 0120     		movs	r0, #1
 208 00a8 FFF7FEFF 		bl	DIR_Write
 209              	.LVL14:
  69:.\WireReel.c  ****                         CyDelayUs(1000);
 210              		.loc 1 69 0
 211 00ac 4FF47A70 		mov	r0, #1000
 212 00b0 FFF7FEFF 		bl	CyDelayUs
 213              	.LVL15:
  70:.\WireReel.c  ****                         PWM_1_Start();
 214              		.loc 1 70 0
 215 00b4 FFF7FEFF 		bl	PWM_1_Start
ARM GAS  C:\Users\li\AppData\Local\Temp\ccFnSUeJ.s 			page 6


 216              	.LVL16:
  71:.\WireReel.c  ****                         togle = 0;
 217              		.loc 1 71 0
 218 00b8 0022     		movs	r2, #0
 219 00ba 154B     		ldr	r3, .L20+8
 220 00bc 1A70     		strb	r2, [r3]
 221 00be 08BD     		pop	{r3, pc}
 222              	.L17:
  72:.\WireReel.c  ****                     }
  73:.\WireReel.c  ****                     else if (g_Car.control_dir == 2)
 223              		.loc 1 73 0
 224 00c0 022B     		cmp	r3, #2
 225 00c2 12D1     		bne	.L18
  74:.\WireReel.c  ****                     {
  75:.\WireReel.c  ****                         ENA_Write(1);
 226              		.loc 1 75 0
 227 00c4 0120     		movs	r0, #1
 228 00c6 FFF7FEFF 		bl	ENA_Write
 229              	.LVL17:
  76:.\WireReel.c  ****                         CyDelayUs(20);
 230              		.loc 1 76 0
 231 00ca 1420     		movs	r0, #20
 232 00cc FFF7FEFF 		bl	CyDelayUs
 233              	.LVL18:
  77:.\WireReel.c  ****                         DIR_Write(0);
 234              		.loc 1 77 0
 235 00d0 0020     		movs	r0, #0
 236 00d2 FFF7FEFF 		bl	DIR_Write
 237              	.LVL19:
  78:.\WireReel.c  ****                         CyDelayUs(1000);
 238              		.loc 1 78 0
 239 00d6 4FF47A70 		mov	r0, #1000
 240 00da FFF7FEFF 		bl	CyDelayUs
 241              	.LVL20:
  79:.\WireReel.c  ****                         PWM_1_Start();
 242              		.loc 1 79 0
 243 00de FFF7FEFF 		bl	PWM_1_Start
 244              	.LVL21:
  80:.\WireReel.c  ****                         togle = 0;
 245              		.loc 1 80 0
 246 00e2 0022     		movs	r2, #0
 247 00e4 0A4B     		ldr	r3, .L20+8
 248 00e6 1A70     		strb	r2, [r3]
 249 00e8 08BD     		pop	{r3, pc}
 250              	.L18:
  81:.\WireReel.c  ****                     }
  82:.\WireReel.c  ****                     else
  83:.\WireReel.c  ****                     {
  84:.\WireReel.c  ****                         
  85:.\WireReel.c  ****                         
  86:.\WireReel.c  ****                        // g_Car.control_flag = 0 ;
  87:.\WireReel.c  ****                       //  count = 0;
  88:.\WireReel.c  ****                         
  89:.\WireReel.c  ****                         ENA_Write(0);
 251              		.loc 1 89 0
 252 00ea 0020     		movs	r0, #0
 253 00ec FFF7FEFF 		bl	ENA_Write
ARM GAS  C:\Users\li\AppData\Local\Temp\ccFnSUeJ.s 			page 7


 254              	.LVL22:
  90:.\WireReel.c  ****                         PWM_1_Stop();
 255              		.loc 1 90 0
 256 00f0 FFF7FEFF 		bl	PWM_1_Stop
 257              	.LVL23:
 258 00f4 08BD     		pop	{r3, pc}
 259              	.L10:
  91:.\WireReel.c  ****                     }
  92:.\WireReel.c  ****                 }
  93:.\WireReel.c  ****             
  94:.\WireReel.c  ****             }
  95:.\WireReel.c  ****             else
  96:.\WireReel.c  ****             {
  97:.\WireReel.c  ****                  g_Car.control_flag = 0 ;
 260              		.loc 1 97 0
 261 00f6 0020     		movs	r0, #0
 262 00f8 044B     		ldr	r3, .L20+4
 263 00fa D875     		strb	r0, [r3, #23]
  98:.\WireReel.c  ****                  ENA_Write(0);
 264              		.loc 1 98 0
 265 00fc FFF7FEFF 		bl	ENA_Write
 266              	.LVL24:
  99:.\WireReel.c  ****                  PWM_1_Stop();
 267              		.loc 1 99 0
 268 0100 FFF7FEFF 		bl	PWM_1_Stop
 269              	.LVL25:
 270 0104 08BD     		pop	{r3, pc}
 271              	.L21:
 272 0106 00BF     		.align	2
 273              	.L20:
 274 0108 00000000 		.word	g_WireReel
 275 010c 00000000 		.word	g_Car
 276 0110 00000000 		.word	.LANCHOR0
 277              		.cfi_endproc
 278              	.LFE65:
 279              		.size	WireReel_control_Loop, .-WireReel_control_Loop
 280              		.comm	g_WireReel,6,4
 281              		.comm	g_Car,32,4
 282              		.bss
 283              		.set	.LANCHOR0,. + 0
 284              		.type	togle, %object
 285              		.size	togle, 1
 286              	togle:
 287 0000 00       		.space	1
 288              		.text
 289              	.Letext0:
 290              		.file 2 "c:\\program files (x86)\\cypress\\psoc creator\\3.3\\psoc creator\\import\\gnu\\arm\\4.9.
 291              		.file 3 "c:\\program files (x86)\\cypress\\psoc creator\\3.3\\psoc creator\\import\\gnu\\arm\\4.9.
 292              		.file 4 "Generated_Source\\PSoC5/cytypes.h"
 293              		.file 5 ".\\WireReel.h"
 294              		.file 6 "Generated_Source\\PSoC5/core_cm3.h"
 295              		.file 7 "Generated_Source\\PSoC5/ENA.h"
 296              		.file 8 "Generated_Source\\PSoC5/CyLib.h"
 297              		.file 9 "Generated_Source\\PSoC5/DIR.h"
 298              		.file 10 "Generated_Source\\PSoC5/PWM_1.h"